target datalayout = "e-m:e-p270:32:32-p271:32:32-p272:64:64-i64:64-i128:128-f80:128-n8:16:32:64-S128"
target triple = "x86_64-pc-linux-gnu"

; Function Attrs: mustprogress uwtable
define void @_ZN32pxrInternal_v0_24__pxrReserved__26Trace_AggregateTreeBuilder7OnEventERKNS_13TraceThreadIdERKNS_7TfTokenERKNS_10TraceEventE(ptr noundef nonnull align 8 dereferenceable(24) %0, ptr noundef nonnull align 8 dereferenceable(32) %1, ptr noundef nonnull align 8 dereferenceable(8) %2, ptr noundef nonnull align 8 dereferenceable(32) %3) unnamed_addr #0 align 2 {
  %5 = alloca ptr, align 8
  %6 = alloca ptr, align 8
  %7 = alloca ptr, align 8
  %8 = alloca ptr, align 8
  store ptr %0, ptr %5, align 8
  store ptr %1, ptr %6, align 8
  store ptr %2, ptr %7, align 8
  store ptr %3, ptr %8, align 8
  %9 = load ptr, ptr %5, align 8
  %10 = load ptr, ptr %8, align 8
  %11 = call noundef zeroext i8 @_ZNK32pxrInternal_v0_24__pxrReserved__10TraceEvent7GetTypeEv(ptr noundef nonnull align 8 dereferenceable(32) %10)
  switch i8 %11, label %16 [
    i8 5, label %12
    i8 6, label %12
  ]

12:                                               ; preds = %4, %4
  %13 = load ptr, ptr %6, align 8
  %14 = load ptr, ptr %7, align 8
  %15 = load ptr, ptr %8, align 8
  call void @_ZN32pxrInternal_v0_24__pxrReserved__26Trace_AggregateTreeBuilder15_OnCounterEventERKNS_13TraceThreadIdERKNS_7TfTokenERKNS_10TraceEventE(ptr noundef nonnull align 8 dereferenceable(24) %9, ptr noundef nonnull align 8 dereferenceable(32) %13, ptr noundef nonnull align 8 dereferenceable(8) %14, ptr noundef nonnull align 8 dereferenceable(32) %15)
  br label %17

16:                                               ; preds = %4
  br label %17

17:                                               ; preds = %16, %12
  ret void
}