; Function Attrs: mustprogress uwtable
define void @_ZN32pxrInternal_v0_24__pxrReserved__26Trace_AggregateTreeBuilder7OnEventERKNS_13TraceThreadIdERKNS_7TfTokenERKNS_10TraceEventE(ptr nocapture noundef nonnull readonly align 8 dereferenceable(24) %0, ptr noundef nonnull align 8 dereferenceable(32) %1, ptr nocapture noundef nonnull readonly align 8 dereferenceable(8) %2, ptr noundef nonnull align 8 dereferenceable(32) %3) unnamed_addr #0 align 2 {
  %5 = tail call noundef zeroext i8 @_ZNK32pxrInternal_v0_24__pxrReserved__10TraceEvent7GetTypeEv(ptr noundef nonnull align 8 dereferenceable(32) %3)
  %.off = add i8 %5, -5
  %switch = icmp ult i8 %.off, 2
  br i1 %switch, label %6, label %7

6:                                                ; preds = %4
  tail call void @_ZN32pxrInternal_v0_24__pxrReserved__26Trace_AggregateTreeBuilder15_OnCounterEventERKNS_13TraceThreadIdERKNS_7TfTokenERKNS_10TraceEventE(ptr noundef nonnull align 8 dereferenceable(24) %0, ptr noundef nonnull align 8 dereferenceable(32) %1, ptr noundef nonnull align 8 dereferenceable(8) %2, ptr noundef nonnull align 8 dereferenceable(32) %3)
  br label %7

7:                                                ; preds = %4, %6
  ret void
}